target datalayout = "e-m:e-p270:32:32-p271:32:32-p272:64:64-i64:64-i128:128-f80:128-n8:16:32:64-S128"
target triple = "x86_64-pc-linux-gnu"

%struct.MVNDistinct = type { i32, i32, i32, [0 x %struct.MVNDistinctItem] }
%struct.MVNDistinctItem = type { double, i32, ptr }
%struct.StringInfoData = type { ptr, i32, i32, i32 }
%struct.FunctionCallInfoBaseData = type { ptr, ptr, ptr, i32, i8, i16, [0 x %struct.NullableDatum] }
%struct.NullableDatum = type { i64, i8 }

@.str.9 = private unnamed_addr constant [3 x i8] c", \00", align 1
@.str.10 = private unnamed_addr constant [5 x i8] c"%s%d\00", align 1
@.str.11 = private unnamed_addr constant [2 x i8] c"\22\00", align 1
@.str.12 = private unnamed_addr constant [6 x i8] c"\22: %d\00", align 1

; Function Attrs: inlinehint nounwind uwtable
define internal i64 @PointerGetDatum(ptr noundef %0) #3 {
  %2 = alloca ptr, align 8
  store ptr %0, ptr %2, align 8
  %3 = load ptr, ptr %2, align 8
  %4 = ptrtoint ptr %3 to i64
  ret i64 %4
}

; Function Attrs: inlinehint nounwind uwtable
define internal i64 @CStringGetDatum(ptr noundef %0) #3 {
  %2 = alloca ptr, align 8
  store ptr %0, ptr %2, align 8
  %3 = load ptr, ptr %2, align 8
  %4 = call i64 @PointerGetDatum(ptr noundef %3)
  ret i64 %4
}

; Function Attrs: inlinehint nounwind uwtable
define internal ptr @DatumGetPointer(i64 noundef %0) #3 {
  %2 = alloca i64, align 8
  store i64 %0, ptr %2, align 8
  %3 = load i64, ptr %2, align 8
  %4 = inttoptr i64 %3 to ptr
  ret ptr %4
}

; Function Attrs: nounwind uwtable
define dso_local i64 @pg_ndistinct_out(ptr noundef %0) #0 {
  %2 = alloca ptr, align 8
  %3 = alloca ptr, align 8
  %4 = alloca ptr, align 8
  %5 = alloca i32, align 4
  %6 = alloca %struct.StringInfoData, align 8
  %7 = alloca i32, align 4
  %8 = alloca %struct.MVNDistinctItem, align 8
  %9 = alloca i16, align 2
  store ptr %0, ptr %2, align 8
  call void @llvm.lifetime.start.p0(i64 8, ptr %3) #7
  %10 = load ptr, ptr %2, align 8
  %11 = getelementptr inbounds nuw %struct.FunctionCallInfoBaseData, ptr %10, i32 0, i32 6
  %12 = getelementptr inbounds [0 x %struct.NullableDatum], ptr %11, i64 0, i64 0
  %13 = getelementptr inbounds nuw %struct.NullableDatum, ptr %12, i32 0, i32 0
  %14 = load i64, ptr %13, align 8
  %15 = call ptr @DatumGetPointer(i64 noundef %14)
  %16 = call ptr @pg_detoast_datum_packed(ptr noundef %15)
  store ptr %16, ptr %3, align 8
  call void @llvm.lifetime.start.p0(i64 8, ptr %4) #7
  %17 = load ptr, ptr %3, align 8
  %18 = call ptr @statext_ndistinct_deserialize(ptr noundef %17)
  store ptr %18, ptr %4, align 8
  call void @llvm.lifetime.start.p0(i64 4, ptr %5) #7
  call void @llvm.lifetime.start.p0(i64 24, ptr %6) #7
  call void @initStringInfo(ptr noundef %6)
  call void @appendStringInfoChar(ptr noundef %6, i8 noundef signext 123)
  store i32 0, ptr %5, align 4
  br label %19

19:                                               ; preds = %59, %1
  %20 = load i32, ptr %5, align 4
  %21 = load ptr, ptr %4, align 8
  %22 = getelementptr inbounds nuw %struct.MVNDistinct, ptr %21, i32 0, i32 2
  %23 = load i32, ptr %22, align 8
  %24 = icmp ult i32 %20, %23
  br i1 %24, label %25, label %62

25:                                               ; preds = %19
  call void @llvm.lifetime.start.p0(i64 4, ptr %7) #7
  call void @llvm.lifetime.start.p0(i64 24, ptr %8) #7
  %26 = load ptr, ptr %4, align 8
  %27 = getelementptr inbounds nuw %struct.MVNDistinct, ptr %26, i32 0, i32 3
  %28 = load i32, ptr %5, align 4
  %29 = sext i32 %28 to i64
  %30 = getelementptr inbounds [0 x %struct.MVNDistinctItem], ptr %27, i64 0, i64 %29
  call void @llvm.memcpy.p0.p0.i64(ptr align 8 %8, ptr align 8 %30, i64 24, i1 false)
  %31 = load i32, ptr %5, align 4
  %32 = icmp sgt i32 %31, 0
  br i1 %32, label %33, label %34

33:                                               ; preds = %25
  call void @appendStringInfoString(ptr noundef %6, ptr noundef @.str.9)
  br label %34

34:                                               ; preds = %33, %25
  store i32 0, ptr %7, align 4
  br label %35

35:                                               ; preds = %52, %34
  %36 = load i32, ptr %7, align 4
  %37 = getelementptr inbounds nuw %struct.MVNDistinctItem, ptr %8, i32 0, i32 1
  %38 = load i32, ptr %37, align 8
  %39 = icmp slt i32 %36, %38
  br i1 %39, label %40, label %55

40:                                               ; preds = %35
  call void @llvm.lifetime.start.p0(i64 2, ptr %9) #7
  %41 = getelementptr inbounds nuw %struct.MVNDistinctItem, ptr %8, i32 0, i32 2
  %42 = load ptr, ptr %41, align 8
  %43 = load i32, ptr %7, align 4
  %44 = sext i32 %43 to i64
  %45 = getelementptr inbounds i16, ptr %42, i64 %44
  %46 = load i16, ptr %45, align 2
  store i16 %46, ptr %9, align 2
  %47 = load i32, ptr %7, align 4
  %48 = icmp eq i32 %47, 0
  %49 = select i1 %48, ptr @.str.11, ptr @.str.9
  %50 = load i16, ptr %9, align 2
  %51 = sext i16 %50 to i32
  call void (ptr, ptr, ...) @appendStringInfo(ptr noundef %6, ptr noundef @.str.10, ptr noundef %49, i32 noundef %51)
  call void @llvm.lifetime.end.p0(i64 2, ptr %9) #7
  br label %52

52:                                               ; preds = %40
  %53 = load i32, ptr %7, align 4
  %54 = add i32 %53, 1
  store i32 %54, ptr %7, align 4
  br label %35, !llvm.loop !17

55:                                               ; preds = %35
  %56 = getelementptr inbounds nuw %struct.MVNDistinctItem, ptr %8, i32 0, i32 0
  %57 = load double, ptr %56, align 8
  %58 = fptosi double %57 to i32
  call void (ptr, ptr, ...) @appendStringInfo(ptr noundef %6, ptr noundef @.str.12, i32 noundef %58)
  call void @llvm.lifetime.end.p0(i64 24, ptr %8) #7
  call void @llvm.lifetime.end.p0(i64 4, ptr %7) #7
  br label %59

59:                                               ; preds = %55
  %60 = load i32, ptr %5, align 4
  %61 = add i32 %60, 1
  store i32 %61, ptr %5, align 4
  br label %19, !llvm.loop !18

62:                                               ; preds = %19
  call void @appendStringInfoChar(ptr noundef %6, i8 noundef signext 125)
  %63 = getelementptr inbounds nuw %struct.StringInfoData, ptr %6, i32 0, i32 0
  %64 = load ptr, ptr %63, align 8
  %65 = call i64 @CStringGetDatum(ptr noundef %64)
  call void @llvm.lifetime.end.p0(i64 24, ptr %6) #7
  call void @llvm.lifetime.end.p0(i64 4, ptr %5) #7
  call void @llvm.lifetime.end.p0(i64 8, ptr %4) #7
  call void @llvm.lifetime.end.p0(i64 8, ptr %3) #7
  ret i64 %65
}