; Function Attrs: nounwind uwtable
define dso_local i64 @pg_ndistinct_out(ptr noundef readonly captures(none) %0) local_unnamed_addr #0 {
  %2 = alloca %struct.StringInfoData, align 8
  %3 = getelementptr inbounds nuw i8, ptr %0, i64 32
  %4 = load i64, ptr %3, align 8
  %5 = inttoptr i64 %4 to ptr
  %6 = tail call ptr @pg_detoast_datum_packed(ptr noundef %5) #10
  %7 = tail call ptr @statext_ndistinct_deserialize(ptr noundef %6)
  call void @llvm.lifetime.start.p0(i64 24, ptr nonnull %2) #10
  call void @initStringInfo(ptr noundef nonnull %2) #10
  call void @appendStringInfoChar(ptr noundef nonnull %2, i8 noundef signext 123) #10
  %8 = getelementptr inbounds nuw i8, ptr %7, i64 8
  %9 = load i32, ptr %8, align 8
  %.not = icmp eq i32 %9, 0
  br i1 %.not, label %._crit_edge18, label %.lr.ph17

.lr.ph17:                                         ; preds = %1
  %10 = getelementptr inbounds nuw i8, ptr %7, i64 16
  br label %11

11:                                               ; preds = %.lr.ph17, %._crit_edge
  %.015 = phi i32 [ 0, %.lr.ph17 ], [ %24, %._crit_edge ]
  %12 = sext i32 %.015 to i64
  %13 = getelementptr inbounds [0 x %struct.MVNDistinctItem], ptr %10, i64 0, i64 %12
  %.sroa.0.0.copyload = load double, ptr %13, align 8
  %.sroa.4.0..sroa_idx = getelementptr inbounds nuw i8, ptr %13, i64 8
  %.sroa.4.0.copyload = load i32, ptr %.sroa.4.0..sroa_idx, align 8
  %.sroa.51.0..sroa_idx = getelementptr inbounds nuw i8, ptr %13, i64 16
  %.sroa.51.0.copyload = load ptr, ptr %.sroa.51.0..sroa_idx, align 8
  %14 = icmp sgt i32 %.015, 0
  br i1 %14, label %15, label %16

15:                                               ; preds = %11
  call void @appendStringInfoString(ptr noundef nonnull %2, ptr noundef nonnull @.str.9) #10
  br label %16

16:                                               ; preds = %15, %11
  %17 = icmp sgt i32 %.sroa.4.0.copyload, 0
  br i1 %17, label %.lr.ph.preheader, label %._crit_edge

.lr.ph.preheader:                                 ; preds = %16
  %wide.trip.count = zext nneg i32 %.sroa.4.0.copyload to i64
  br label %.lr.ph

.lr.ph:                                           ; preds = %.lr.ph.preheader, %.lr.ph
  %indvars.iv = phi i64 [ 0, %.lr.ph.preheader ], [ %indvars.iv.next, %.lr.ph ]
  %18 = getelementptr inbounds nuw i16, ptr %.sroa.51.0.copyload, i64 %indvars.iv
  %19 = load i16, ptr %18, align 2
  %20 = icmp eq i64 %indvars.iv, 0
  %21 = select i1 %20, ptr @.str.11, ptr @.str.9
  %22 = sext i16 %19 to i32
  call void (ptr, ptr, ...) @appendStringInfo(ptr noundef nonnull %2, ptr noundef nonnull @.str.10, ptr noundef nonnull %21, i32 noundef %22) #10
  %indvars.iv.next = add nuw nsw i64 %indvars.iv, 1
  %exitcond.not = icmp eq i64 %indvars.iv.next, %wide.trip.count
  br i1 %exitcond.not, label %._crit_edge, label %.lr.ph, !llvm.loop !18

._crit_edge:                                      ; preds = %.lr.ph, %16
  %23 = fptosi double %.sroa.0.0.copyload to i32
  call void (ptr, ptr, ...) @appendStringInfo(ptr noundef nonnull %2, ptr noundef nonnull @.str.12, i32 noundef %23) #10
  %24 = add nuw i32 %.015, 1
  %25 = load i32, ptr %8, align 8
  %26 = icmp ult i32 %24, %25
  br i1 %26, label %11, label %._crit_edge18, !llvm.loop !19

._crit_edge18:                                    ; preds = %._crit_edge, %1
  call void @appendStringInfoChar(ptr noundef nonnull %2, i8 noundef signext 125) #10
  %27 = load ptr, ptr %2, align 8
  %28 = ptrtoint ptr %27 to i64
  call void @llvm.lifetime.end.p0(i64 24, ptr nonnull %2) #10
  ret i64 %28
}